; ModuleID = '2/521.c'
source_filename = "2/521.c"
target datalayout = "e-m:e-p270:32:32-p271:32:32-p272:64:64-i64:64-f80:128-n8:16:32:64-S128"
target triple = "x86_64-pc-linux-gnu"

%struct.b = type { i32, [20 x i8] }

@.str = private unnamed_addr constant [3 x i8] c"%d\00", align 1
@.str.1 = private unnamed_addr constant [5 x i8] c"%d%s\00", align 1
@book = common dso_local global [1000 x %struct.b] zeroinitializer, align 16
@.str.2 = private unnamed_addr constant [4 x i8] c"%c\0A\00", align 1
@.str.3 = private unnamed_addr constant [4 x i8] c"%d\0A\00", align 1

; Function Attrs: noinline nounwind uwtable
define dso_local i32 @main() #0 {
  %1 = alloca i32, align 4
  %2 = alloca i32, align 4
  %3 = alloca i32, align 4
  %4 = alloca [1000 x i32], align 16
  %5 = alloca [128 x i32], align 16
  %6 = alloca i32, align 4
  %7 = alloca i32, align 4
  %8 = alloca i32, align 4
  %9 = alloca i8, align 1
  %10 = alloca [1000 x i32], align 16
  store i32 0, i32* %1, align 4
  %11 = bitcast [128 x i32]* %5 to i8*
  call void @llvm.memset.p0i8.i64(i8* align 16 %11, i8 0, i64 512, i1 false)
  store i32 0, i32* %8, align 4
  %12 = call i32 (i8*, ...) @__isoc99_scanf(i8* getelementptr inbounds ([3 x i8], [3 x i8]* @.str, i64 0, i64 0), i32* %2)
  store i32 0, i32* %3, align 4
  br label %13

13:                                               ; preds = %62, %0
  %14 = load i32, i32* %3, align 4
  %15 = load i32, i32* %2, align 4
  %16 = icmp slt i32 %14, %15
  br i1 %16, label %17, label %65

17:                                               ; preds = %13
  %18 = load i32, i32* %3, align 4
  %19 = sext i32 %18 to i64
  %20 = getelementptr inbounds [1000 x %struct.b], [1000 x %struct.b]* @book, i64 0, i64 %19
  %21 = getelementptr inbounds %struct.b, %struct.b* %20, i32 0, i32 0
  %22 = load i32, i32* %3, align 4
  %23 = sext i32 %22 to i64
  %24 = getelementptr inbounds [1000 x %struct.b], [1000 x %struct.b]* @book, i64 0, i64 %23
  %25 = getelementptr inbounds %struct.b, %struct.b* %24, i32 0, i32 1
  %26 = getelementptr inbounds [20 x i8], [20 x i8]* %25, i64 0, i64 0
  %27 = call i32 (i8*, ...) @__isoc99_scanf(i8* getelementptr inbounds ([5 x i8], [5 x i8]* @.str.1, i64 0, i64 0), i32* %21, i8* %26)
  %28 = load i32, i32* %3, align 4
  %29 = sext i32 %28 to i64
  %30 = getelementptr inbounds [1000 x %struct.b], [1000 x %struct.b]* @book, i64 0, i64 %29
  %31 = getelementptr inbounds %struct.b, %struct.b* %30, i32 0, i32 1
  %32 = getelementptr inbounds [20 x i8], [20 x i8]* %31, i64 0, i64 0
  %33 = call i64 @strlen(i8* %32) #4
  %34 = trunc i64 %33 to i32
  %35 = load i32, i32* %3, align 4
  %36 = sext i32 %35 to i64
  %37 = getelementptr inbounds [1000 x i32], [1000 x i32]* %4, i64 0, i64 %36
  store i32 %34, i32* %37, align 4
  store i32 0, i32* %6, align 4
  br label %38

38:                                               ; preds = %58, %17
  %39 = load i32, i32* %6, align 4
  %40 = load i32, i32* %3, align 4
  %41 = sext i32 %40 to i64
  %42 = getelementptr inbounds [1000 x i32], [1000 x i32]* %4, i64 0, i64 %41
  %43 = load i32, i32* %42, align 4
  %44 = icmp slt i32 %39, %43
  br i1 %44, label %45, label %61

45:                                               ; preds = %38
  %46 = load i32, i32* %3, align 4
  %47 = sext i32 %46 to i64
  %48 = getelementptr inbounds [1000 x %struct.b], [1000 x %struct.b]* @book, i64 0, i64 %47
  %49 = getelementptr inbounds %struct.b, %struct.b* %48, i32 0, i32 1
  %50 = load i32, i32* %6, align 4
  %51 = sext i32 %50 to i64
  %52 = getelementptr inbounds [20 x i8], [20 x i8]* %49, i64 0, i64 %51
  %53 = load i8, i8* %52, align 1
  %54 = sext i8 %53 to i64
  %55 = getelementptr inbounds [128 x i32], [128 x i32]* %5, i64 0, i64 %54
  %56 = load i32, i32* %55, align 4
  %57 = add nsw i32 %56, 1
  store i32 %57, i32* %55, align 4
  br label %58

58:                                               ; preds = %45
  %59 = load i32, i32* %6, align 4
  %60 = add nsw i32 %59, 1
  store i32 %60, i32* %6, align 4
  br label %38

61:                                               ; preds = %38
  br label %62

62:                                               ; preds = %61
  %63 = load i32, i32* %3, align 4
  %64 = add nsw i32 %63, 1
  store i32 %64, i32* %3, align 4
  br label %13

65:                                               ; preds = %13
  store i8 65, i8* %9, align 1
  store i32 -1, i32* %7, align 4
  store i32 65, i32* %6, align 4
  br label %66

66:                                               ; preds = %84, %65
  %67 = load i32, i32* %6, align 4
  %68 = icmp sle i32 %67, 90
  br i1 %68, label %69, label %87

69:                                               ; preds = %66
  %70 = load i32, i32* %6, align 4
  %71 = sext i32 %70 to i64
  %72 = getelementptr inbounds [128 x i32], [128 x i32]* %5, i64 0, i64 %71
  %73 = load i32, i32* %72, align 4
  %74 = load i32, i32* %7, align 4
  %75 = icmp sgt i32 %73, %74
  br i1 %75, label %76, label %83

76:                                               ; preds = %69
  %77 = load i32, i32* %6, align 4
  %78 = sext i32 %77 to i64
  %79 = getelementptr inbounds [128 x i32], [128 x i32]* %5, i64 0, i64 %78
  %80 = load i32, i32* %79, align 4
  store i32 %80, i32* %7, align 4
  %81 = load i32, i32* %6, align 4
  %82 = trunc i32 %81 to i8
  store i8 %82, i8* %9, align 1
  br label %83

83:                                               ; preds = %76, %69
  br label %84

84:                                               ; preds = %83
  %85 = load i32, i32* %6, align 4
  %86 = add nsw i32 %85, 1
  store i32 %86, i32* %6, align 4
  br label %66

87:                                               ; preds = %66
  %88 = load i8, i8* %9, align 1
  %89 = sext i8 %88 to i32
  %90 = call i32 (i8*, ...) @printf(i8* getelementptr inbounds ([4 x i8], [4 x i8]* @.str.2, i64 0, i64 0), i32 %89)
  %91 = load i32, i32* %7, align 4
  %92 = call i32 (i8*, ...) @printf(i8* getelementptr inbounds ([4 x i8], [4 x i8]* @.str.3, i64 0, i64 0), i32 %91)
  store i32 0, i32* %3, align 4
  br label %93

93:                                               ; preds = %138, %87
  %94 = load i32, i32* %3, align 4
  %95 = load i32, i32* %2, align 4
  %96 = icmp slt i32 %94, %95
  br i1 %96, label %97, label %101

97:                                               ; preds = %93
  %98 = load i32, i32* %8, align 4
  %99 = load i32, i32* %7, align 4
  %100 = icmp slt i32 %98, %99
  br label %101

101:                                              ; preds = %97, %93
  %102 = phi i1 [ false, %93 ], [ %100, %97 ]
  br i1 %102, label %103, label %141

103:                                              ; preds = %101
  store i32 0, i32* %6, align 4
  br label %104

104:                                              ; preds = %134, %103
  %105 = load i32, i32* %6, align 4
  %106 = load i32, i32* %3, align 4
  %107 = sext i32 %106 to i64
  %108 = getelementptr inbounds [1000 x i32], [1000 x i32]* %4, i64 0, i64 %107
  %109 = load i32, i32* %108, align 4
  %110 = icmp slt i32 %105, %109
  br i1 %110, label %111, label %137

111:                                              ; preds = %104
  %112 = load i32, i32* %3, align 4
  %113 = sext i32 %112 to i64
  %114 = getelementptr inbounds [1000 x %struct.b], [1000 x %struct.b]* @book, i64 0, i64 %113
  %115 = getelementptr inbounds %struct.b, %struct.b* %114, i32 0, i32 1
  %116 = load i32, i32* %6, align 4
  %117 = sext i32 %116 to i64
  %118 = getelementptr inbounds [20 x i8], [20 x i8]* %115, i64 0, i64 %117
  %119 = load i8, i8* %118, align 1
  %120 = sext i8 %119 to i32
  %121 = load i8, i8* %9, align 1
  %122 = sext i8 %121 to i32
  %123 = icmp eq i32 %120, %122
  br i1 %123, label %124, label %133

124:                                              ; preds = %111
  %125 = load i32, i32* %3, align 4
  %126 = sext i32 %125 to i64
  %127 = getelementptr inbounds [1000 x %struct.b], [1000 x %struct.b]* @book, i64 0, i64 %126
  %128 = getelementptr inbounds %struct.b, %struct.b* %127, i32 0, i32 0
  %129 = load i32, i32* %128, align 8
  %130 = call i32 (i8*, ...) @printf(i8* getelementptr inbounds ([4 x i8], [4 x i8]* @.str.3, i64 0, i64 0), i32 %129)
  %131 = load i32, i32* %8, align 4
  %132 = add nsw i32 %131, 1
  store i32 %132, i32* %8, align 4
  br label %137

133:                                              ; preds = %111
  br label %134

134:                                              ; preds = %133
  %135 = load i32, i32* %6, align 4
  %136 = add nsw i32 %135, 1
  store i32 %136, i32* %6, align 4
  br label %104

137:                                              ; preds = %124, %104
  br label %138

138:                                              ; preds = %137
  %139 = load i32, i32* %3, align 4
  %140 = add nsw i32 %139, 1
  store i32 %140, i32* %3, align 4
  br label %93

141:                                              ; preds = %101
  ret i32 0
}

; Function Attrs: argmemonly nounwind willreturn
declare void @llvm.memset.p0i8.i64(i8* nocapture writeonly, i8, i64, i1 immarg) #1

declare dso_local i32 @__isoc99_scanf(i8*, ...) #2

; Function Attrs: nounwind readonly
declare dso_local i64 @strlen(i8*) #3

declare dso_local i32 @printf(i8*, ...) #2


!llvm.module.flags = !{!0}
!llvm.ident = !{!1}

!0 = !{i32 1, !"wchar_size", i32 4}
!1 = !{!"clang version 10.0.0-4ubuntu1 "}
